target datalayout = "e-m:e-p270:32:32-p271:32:32-p272:64:64-i64:64-i128:128-f80:128-n8:16:32:64-S128"
target triple = "x86_64-pc-linux-gnu"

%class.G1NUMA = type { ptr, i32, ptr, i32, i64, i64, ptr }
%class.G1NodeIndexCheckClosure = type { %class.G1HeapRegionClosure.base, ptr, ptr, ptr, ptr, ptr, ptr }
%class.G1HeapRegionClosure.base = type <{ ptr, i8 }>

@_ZTV23G1NodeIndexCheckClosure = hidden unnamed_addr constant { [3 x ptr] } { [3 x ptr] [ptr null, ptr null, ptr @_ZN23G1NodeIndexCheckClosure14do_heap_regionEP12G1HeapRegion] }, align 8
@.str.7 = private unnamed_addr constant [62 x i8] c"%s: NUMA region verification (id: matched/mismatched/total): \00", align 1
@.str.8 = private unnamed_addr constant [14 x i8] c"%u: %u/%u/%u \00", align 1

; Function Attrs: mustprogress nounwind uwtable
define hidden noundef i32 @_ZNK6G1NUMA16num_active_nodesEv(ptr noundef nonnull align 8 dereferenceable(56) %0) #1 align 2 {
  %2 = alloca ptr, align 8
  store ptr %0, ptr %2, align 8
  %3 = load ptr, ptr %2, align 8
  %4 = getelementptr inbounds %class.G1NUMA, ptr %3, i32 0, i32 3
  %5 = load i32, ptr %4, align 8
  ret i32 %5
}

; Function Attrs: mustprogress nounwind uwtable
define hidden noundef ptr @_ZNK6G1NUMA8node_idsEv(ptr noundef nonnull align 8 dereferenceable(56) %0) #1 align 2 {
  %2 = alloca ptr, align 8
  store ptr %0, ptr %2, align 8
  %3 = load ptr, ptr %2, align 8
  %4 = getelementptr inbounds %class.G1NUMA, ptr %3, i32 0, i32 2
  %5 = load ptr, ptr %4, align 8
  ret ptr %5
}

; Function Attrs: mustprogress nounwind uwtable
define hidden void @_ZN23G1NodeIndexCheckClosureD2Ev(ptr noundef nonnull align 8 dereferenceable(64) %0) unnamed_addr #1 align 2 {
  %2 = alloca ptr, align 8
  %3 = alloca ptr, align 8
  %4 = alloca i32, align 4
  store ptr %0, ptr %2, align 8
  %5 = load ptr, ptr %2, align 8
  store ptr getelementptr inbounds inrange(-16, 8) ({ [3 x ptr] }, ptr @_ZTV23G1NodeIndexCheckClosure, i32 0, i32 0, i32 2), ptr %5, align 8
  %6 = getelementptr inbounds %class.G1NodeIndexCheckClosure, ptr %5, i32 0, i32 6
  %7 = load ptr, ptr %6, align 8
  %8 = getelementptr inbounds %class.G1NodeIndexCheckClosure, ptr %5, i32 0, i32 1
  %9 = load ptr, ptr %8, align 8
  call void (ptr, ptr, ...) @_ZN12outputStream5printEPKcz(ptr noundef nonnull align 8 dereferenceable(56) %7, ptr noundef @.str.7, ptr noundef %9)
  %10 = getelementptr inbounds %class.G1NodeIndexCheckClosure, ptr %5, i32 0, i32 2
  %11 = load ptr, ptr %10, align 8
  %12 = call noundef ptr @_ZNK6G1NUMA8node_idsEv(ptr noundef nonnull align 8 dereferenceable(56) %11)
  store ptr %12, ptr %3, align 8
  store i32 0, ptr %4, align 4
  br label %13

13:                                               ; preds = %45, %1
  %14 = load i32, ptr %4, align 4
  %15 = getelementptr inbounds %class.G1NodeIndexCheckClosure, ptr %5, i32 0, i32 2
  %16 = load ptr, ptr %15, align 8
  %17 = call noundef i32 @_ZNK6G1NUMA16num_active_nodesEv(ptr noundef nonnull align 8 dereferenceable(56) %16)
  %18 = icmp ult i32 %14, %17
  br i1 %18, label %19, label %48

19:                                               ; preds = %13
  %20 = getelementptr inbounds %class.G1NodeIndexCheckClosure, ptr %5, i32 0, i32 6
  %21 = load ptr, ptr %20, align 8
  %22 = load ptr, ptr %3, align 8
  %23 = load i32, ptr %4, align 4
  %24 = zext i32 %23 to i64
  %25 = getelementptr inbounds i32, ptr %22, i64 %24
  %26 = load i32, ptr %25, align 4
  %27 = getelementptr inbounds %class.G1NodeIndexCheckClosure, ptr %5, i32 0, i32 3
  %28 = load ptr, ptr %27, align 8
  %29 = load i32, ptr %4, align 4
  %30 = zext i32 %29 to i64
  %31 = getelementptr inbounds i32, ptr %28, i64 %30
  %32 = load i32, ptr %31, align 4
  %33 = getelementptr inbounds %class.G1NodeIndexCheckClosure, ptr %5, i32 0, i32 4
  %34 = load ptr, ptr %33, align 8
  %35 = load i32, ptr %4, align 4
  %36 = zext i32 %35 to i64
  %37 = getelementptr inbounds i32, ptr %34, i64 %36
  %38 = load i32, ptr %37, align 4
  %39 = getelementptr inbounds %class.G1NodeIndexCheckClosure, ptr %5, i32 0, i32 5
  %40 = load ptr, ptr %39, align 8
  %41 = load i32, ptr %4, align 4
  %42 = zext i32 %41 to i64
  %43 = getelementptr inbounds i32, ptr %40, i64 %42
  %44 = load i32, ptr %43, align 4
  call void (ptr, ptr, ...) @_ZN12outputStream5printEPKcz(ptr noundef nonnull align 8 dereferenceable(56) %21, ptr noundef @.str.8, i32 noundef %26, i32 noundef %32, i32 noundef %38, i32 noundef %44)
  br label %45

45:                                               ; preds = %19
  %46 = load i32, ptr %4, align 4
  %47 = add i32 %46, 1
  store i32 %47, ptr %4, align 4
  br label %13, !llvm.loop !10

48:                                               ; preds = %13
  %49 = getelementptr inbounds %class.G1NodeIndexCheckClosure, ptr %5, i32 0, i32 3
  %50 = load ptr, ptr %49, align 8
  call void @_Z8FreeHeapPv(ptr noundef %50)
  %51 = getelementptr inbounds %class.G1NodeIndexCheckClosure, ptr %5, i32 0, i32 4
  %52 = load ptr, ptr %51, align 8
  call void @_Z8FreeHeapPv(ptr noundef %52)
  %53 = getelementptr inbounds %class.G1NodeIndexCheckClosure, ptr %5, i32 0, i32 5
  %54 = load ptr, ptr %53, align 8
  call void @_Z8FreeHeapPv(ptr noundef %54)
  ret void
}