; Function Attrs: mustprogress nounwind uwtable
define hidden void @_ZN23G1NodeIndexCheckClosureD2Ev(ptr nocapture noundef nonnull align 8 dereferenceable(64) %0) unnamed_addr #1 align 2 {
  store ptr getelementptr inbounds inrange(-16, 8) (i8, ptr @_ZTV23G1NodeIndexCheckClosure, i64 16), ptr %0, align 8
  %2 = getelementptr inbounds i8, ptr %0, i64 56
  %3 = load ptr, ptr %2, align 8
  %4 = getelementptr inbounds i8, ptr %0, i64 16
  %5 = load ptr, ptr %4, align 8
  tail call void (ptr, ptr, ...) @_ZN12outputStream5printEPKcz(ptr noundef nonnull align 8 dereferenceable(56) %3, ptr noundef nonnull @.str.7, ptr noundef %5) #12
  %6 = getelementptr inbounds i8, ptr %0, i64 24
  %7 = load ptr, ptr %6, align 8
  %8 = getelementptr inbounds i8, ptr %7, i64 16
  %9 = load ptr, ptr %8, align 8
  %10 = getelementptr inbounds i8, ptr %7, i64 24
  %11 = load i32, ptr %10, align 8
  %.not = icmp eq i32 %11, 0
  br i1 %.not, label %._crit_edge, label %.lr.ph

.lr.ph:                                           ; preds = %1
  %12 = getelementptr inbounds i8, ptr %0, i64 32
  %13 = getelementptr inbounds i8, ptr %0, i64 40
  %14 = getelementptr inbounds i8, ptr %0, i64 48
  br label %15

15:                                               ; preds = %.lr.ph, %15
  %indvars.iv = phi i64 [ 0, %.lr.ph ], [ %indvars.iv.next, %15 ]
  %16 = load ptr, ptr %2, align 8
  %17 = getelementptr inbounds i32, ptr %9, i64 %indvars.iv
  %18 = load i32, ptr %17, align 4
  %19 = load ptr, ptr %12, align 8
  %20 = getelementptr inbounds i32, ptr %19, i64 %indvars.iv
  %21 = load i32, ptr %20, align 4
  %22 = load ptr, ptr %13, align 8
  %23 = getelementptr inbounds i32, ptr %22, i64 %indvars.iv
  %24 = load i32, ptr %23, align 4
  %25 = load ptr, ptr %14, align 8
  %26 = getelementptr inbounds i32, ptr %25, i64 %indvars.iv
  %27 = load i32, ptr %26, align 4
  tail call void (ptr, ptr, ...) @_ZN12outputStream5printEPKcz(ptr noundef nonnull align 8 dereferenceable(56) %16, ptr noundef nonnull @.str.8, i32 noundef %18, i32 noundef %21, i32 noundef %24, i32 noundef %27) #12
  %indvars.iv.next = add nuw nsw i64 %indvars.iv, 1
  %28 = load ptr, ptr %6, align 8
  %29 = getelementptr inbounds i8, ptr %28, i64 24
  %30 = load i32, ptr %29, align 8
  %31 = zext i32 %30 to i64
  %32 = icmp ult i64 %indvars.iv.next, %31
  br i1 %32, label %15, label %._crit_edge, !llvm.loop !10

._crit_edge:                                      ; preds = %15, %1
  %33 = getelementptr inbounds i8, ptr %0, i64 32
  %34 = load ptr, ptr %33, align 8
  tail call void @_Z8FreeHeapPv(ptr noundef %34) #12
  %35 = getelementptr inbounds i8, ptr %0, i64 40
  %36 = load ptr, ptr %35, align 8
  tail call void @_Z8FreeHeapPv(ptr noundef %36) #12
  %37 = getelementptr inbounds i8, ptr %0, i64 48
  %38 = load ptr, ptr %37, align 8
  tail call void @_Z8FreeHeapPv(ptr noundef %38) #12
  ret void
}